; Function Attrs: mustprogress uwtable
define void @_ZNK5Ipopt10DiagMatrix14MultVectorImplEdRKNS_6VectorEdRS1_(ptr nocapture noundef nonnull readonly align 8 dereferenceable(88) %0, double noundef %1, ptr noundef nonnull align 8 dereferenceable(205) %2, double noundef %3, ptr noundef nonnull align 8 dereferenceable(205) %4) unnamed_addr #0 align 2 personality ptr @__gxx_personality_v0 {
  %6 = fcmp une double %3, 0.000000e+00
  br i1 %6, label %7, label %8

7:                                                ; preds = %5
  tail call void @_ZN5Ipopt6Vector4ScalEd(ptr noundef nonnull align 8 dereferenceable(205) %4, double noundef %3)
  br label %12

8:                                                ; preds = %5
  %9 = load ptr, ptr %4, align 8
  %10 = getelementptr inbounds i8, ptr %9, i64 72
  %11 = load ptr, ptr %10, align 8
  tail call void %11(ptr noundef nonnull align 8 dereferenceable(205) %4, double noundef 0.000000e+00)
  tail call void @_ZN5Ipopt12TaggedObject13ObjectChangedEv(ptr noundef nonnull align 8 dereferenceable(56) %4)
  br label %12

12:                                               ; preds = %8, %7
  %13 = getelementptr inbounds i8, ptr %4, i64 56
  %14 = load ptr, ptr %13, align 8
  %15 = load ptr, ptr %14, align 8
  %16 = getelementptr inbounds i8, ptr %15, i64 16
  %17 = load ptr, ptr %16, align 8
  %18 = tail call noundef ptr %17(ptr noundef nonnull align 8 dereferenceable(16) %14)
  %.not.i.i = icmp eq ptr %18, null
  br i1 %.not.i.i, label %_ZN5Ipopt8SmartPtrINS_6VectorEEC2EPS1_.exit, label %19

19:                                               ; preds = %12
  %20 = getelementptr inbounds i8, ptr %18, i64 8
  %21 = load i32, ptr %20, align 8
  %22 = add nsw i32 %21, 1
  store i32 %22, ptr %20, align 8
  br label %_ZN5Ipopt8SmartPtrINS_6VectorEEC2EPS1_.exit

_ZN5Ipopt8SmartPtrINS_6VectorEEC2EPS1_.exit:      ; preds = %19, %12
  invoke void @_ZN5Ipopt6Vector4CopyERKS0_(ptr noundef nonnull align 8 dereferenceable(205) %18, ptr noundef nonnull align 8 dereferenceable(205) %2)
          to label %23 unwind label %40

23:                                               ; preds = %_ZN5Ipopt8SmartPtrINS_6VectorEEC2EPS1_.exit
  %24 = getelementptr inbounds i8, ptr %0, i64 80
  %25 = load ptr, ptr %24, align 8
  %26 = load ptr, ptr %18, align 8
  %27 = getelementptr inbounds i8, ptr %26, i64 88
  %28 = load ptr, ptr %27, align 8
  invoke void %28(ptr noundef nonnull align 8 dereferenceable(205) %18, ptr noundef nonnull align 8 dereferenceable(205) %25)
          to label %.noexc unwind label %.thread

.noexc:                                           ; preds = %23
  invoke void @_ZN5Ipopt12TaggedObject13ObjectChangedEv(ptr noundef nonnull align 8 dereferenceable(56) %18)
          to label %_ZN5Ipopt6Vector19ElementWiseMultiplyERKS0_.exit unwind label %.thread

_ZN5Ipopt6Vector19ElementWiseMultiplyERKS0_.exit: ; preds = %.noexc
  %29 = load ptr, ptr %4, align 8
  %30 = getelementptr inbounds i8, ptr %29, i64 32
  %31 = load ptr, ptr %30, align 8
  invoke void %31(ptr noundef nonnull align 8 dereferenceable(205) %4, double noundef %1, ptr noundef nonnull align 8 dereferenceable(205) %18)
          to label %.noexc11 unwind label %.thread

.noexc11:                                         ; preds = %_ZN5Ipopt6Vector19ElementWiseMultiplyERKS0_.exit
  invoke void @_ZN5Ipopt12TaggedObject13ObjectChangedEv(ptr noundef nonnull align 8 dereferenceable(56) %4)
          to label %_ZN5Ipopt6Vector4AxpyEdRKS0_.exit unwind label %.thread

_ZN5Ipopt6Vector4AxpyEdRKS0_.exit:                ; preds = %.noexc11
  %32 = getelementptr inbounds i8, ptr %18, i64 8
  %33 = load i32, ptr %32, align 8
  %34 = add nsw i32 %33, -1
  store i32 %34, ptr %32, align 8
  %35 = icmp eq i32 %34, 0
  br i1 %35, label %36, label %_ZN5Ipopt8SmartPtrINS_6VectorEED2Ev.exit

36:                                               ; preds = %_ZN5Ipopt6Vector4AxpyEdRKS0_.exit
  %37 = load ptr, ptr %18, align 8
  %38 = getelementptr inbounds i8, ptr %37, i64 8
  %39 = load ptr, ptr %38, align 8
  tail call void %39(ptr noundef nonnull align 8 dereferenceable(205) %18) #9
  br label %_ZN5Ipopt8SmartPtrINS_6VectorEED2Ev.exit

_ZN5Ipopt8SmartPtrINS_6VectorEED2Ev.exit:         ; preds = %_ZN5Ipopt6Vector4AxpyEdRKS0_.exit, %36
  ret void

.thread:                                          ; preds = %.noexc11, %_ZN5Ipopt6Vector19ElementWiseMultiplyERKS0_.exit, %.noexc, %23
  %lpad.thr_comm = landingpad { ptr, i32 }
          cleanup
  br label %41

40:                                               ; preds = %_ZN5Ipopt8SmartPtrINS_6VectorEEC2EPS1_.exit
  %lpad.thr_comm.split-lp = landingpad { ptr, i32 }
          cleanup
  br i1 %.not.i.i, label %_ZN5Ipopt8SmartPtrINS_6VectorEED2Ev.exit15, label %41

41:                                               ; preds = %.thread, %40
  %lpad.phi24 = phi { ptr, i32 } [ %lpad.thr_comm, %.thread ], [ %lpad.thr_comm.split-lp, %40 ]
  %42 = getelementptr inbounds i8, ptr %18, i64 8
  %43 = load i32, ptr %42, align 8
  %44 = add nsw i32 %43, -1
  store i32 %44, ptr %42, align 8
  %45 = icmp eq i32 %44, 0
  br i1 %45, label %46, label %_ZN5Ipopt8SmartPtrINS_6VectorEED2Ev.exit15

46:                                               ; preds = %41
  %47 = load ptr, ptr %18, align 8
  %48 = getelementptr inbounds i8, ptr %47, i64 8
  %49 = load ptr, ptr %48, align 8
  tail call void %49(ptr noundef nonnull align 8 dereferenceable(205) %18) #9
  br label %_ZN5Ipopt8SmartPtrINS_6VectorEED2Ev.exit15

_ZN5Ipopt8SmartPtrINS_6VectorEED2Ev.exit15:       ; preds = %40, %41, %46
  %lpad.phi25 = phi { ptr, i32 } [ %lpad.thr_comm.split-lp, %40 ], [ %lpad.phi24, %41 ], [ %lpad.phi24, %46 ]
  resume { ptr, i32 } %lpad.phi25
}